target datalayout = "e-m:e-p270:32:32-p271:32:32-p272:64:64-i64:64-i128:128-f80:128-n8:16:32:64-S128"
target triple = "x86_64-pc-linux-gnu"

%struct.PropertyNameCtype = type { ptr, i32 }

@onigenc_euc_jp_lookup_property_name.wordlist = internal global [56 x { ptr, i32, [4 x i8] }] [{ ptr, i32, [4 x i8] } { ptr @.str, i32 0, [4 x i8] zeroinitializer }, { ptr, i32, [4 x i8] } { ptr @.str, i32 0, [4 x i8] zeroinitializer }, { ptr, i32, [4 x i8] } { ptr @.str, i32 0, [4 x i8] zeroinitializer }, { ptr, i32, [4 x i8] } { ptr @.str, i32 0, [4 x i8] zeroinitializer }, { ptr, i32, [4 x i8] } { ptr @.str.1, i32 12, [4 x i8] zeroinitializer }, { ptr, i32, [4 x i8] } { ptr @.str.2, i32 1, [4 x i8] zeroinitializer }, { ptr, i32, [4 x i8] } { ptr @.str, i32 0, [4 x i8] zeroinitializer }, { ptr, i32, [4 x i8] } { ptr @.str, i32 0, [4 x i8] zeroinitializer }, { ptr, i32, [4 x i8] } { ptr @.str.3, i32 15, [4 x i8] zeroinitializer }, { ptr, i32, [4 x i8] } { ptr @.str, i32 0, [4 x i8] zeroinitializer }, { ptr, i32, [4 x i8] } { ptr @.str.4, i32 13, [4 x i8] zeroinitializer }, { ptr, i32, [4 x i8] } { ptr @.str, i32 0, [4 x i8] zeroinitializer }, { ptr, i32, [4 x i8] } { ptr @.str, i32 0, [4 x i8] zeroinitializer }, { ptr, i32, [4 x i8] } { ptr @.str.5, i32 16, [4 x i8] zeroinitializer }, { ptr, i32, [4 x i8] } { ptr @.str, i32 0, [4 x i8] zeroinitializer }, { ptr, i32, [4 x i8] } { ptr @.str.6, i32 14, [4 x i8] zeroinitializer }, { ptr, i32, [4 x i8] } { ptr @.str.7, i32 11, [4 x i8] zeroinitializer }, { ptr, i32, [4 x i8] } { ptr @.str, i32 0, [4 x i8] zeroinitializer }, { ptr, i32, [4 x i8] } { ptr @.str, i32 0, [4 x i8] zeroinitializer }, { ptr, i32, [4 x i8] } { ptr @.str, i32 0, [4 x i8] zeroinitializer }, { ptr, i32, [4 x i8] } { ptr @.str.8, i32 3, [4 x i8] zeroinitializer }, { ptr, i32, [4 x i8] } { ptr @.str, i32 0, [4 x i8] zeroinitializer }, { ptr, i32, [4 x i8] } { ptr @.str, i32 0, [4 x i8] zeroinitializer }, { ptr, i32, [4 x i8] } { ptr @.str.9, i32 2, [4 x i8] zeroinitializer }, { ptr, i32, [4 x i8] } { ptr @.str, i32 0, [4 x i8] zeroinitializer }, { ptr, i32, [4 x i8] } { ptr @.str.10, i32 8, [4 x i8] zeroinitializer }, { ptr, i32, [4 x i8] } { ptr @.str, i32 0, [4 x i8] zeroinitializer }, { ptr, i32, [4 x i8] } { ptr @.str, i32 0, [4 x i8] zeroinitializer }, { ptr, i32, [4 x i8] } { ptr @.str, i32 0, [4 x i8] zeroinitializer }, { ptr, i32, [4 x i8] } { ptr @.str, i32 0, [4 x i8] zeroinitializer }, { ptr, i32, [4 x i8] } { ptr @.str.11, i32 7, [4 x i8] zeroinitializer }, { ptr, i32, [4 x i8] } { ptr @.str, i32 0, [4 x i8] zeroinitializer }, { ptr, i32, [4 x i8] } { ptr @.str, i32 0, [4 x i8] zeroinitializer }, { ptr, i32, [4 x i8] } { ptr @.str, i32 0, [4 x i8] zeroinitializer }, { ptr, i32, [4 x i8] } { ptr @.str, i32 0, [4 x i8] zeroinitializer }, { ptr, i32, [4 x i8] } { ptr @.str.12, i32 10, [4 x i8] zeroinitializer }, { ptr, i32, [4 x i8] } { ptr @.str, i32 0, [4 x i8] zeroinitializer }, { ptr, i32, [4 x i8] } { ptr @.str, i32 0, [4 x i8] zeroinitializer }, { ptr, i32, [4 x i8] } { ptr @.str, i32 0, [4 x i8] zeroinitializer }, { ptr, i32, [4 x i8] } { ptr @.str, i32 0, [4 x i8] zeroinitializer }, { ptr, i32, [4 x i8] } { ptr @.str.13, i32 9, [4 x i8] zeroinitializer }, { ptr, i32, [4 x i8] } { ptr @.str, i32 0, [4 x i8] zeroinitializer }, { ptr, i32, [4 x i8] } { ptr @.str, i32 0, [4 x i8] zeroinitializer }, { ptr, i32, [4 x i8] } { ptr @.str, i32 0, [4 x i8] zeroinitializer }, { ptr, i32, [4 x i8] } { ptr @.str, i32 0, [4 x i8] zeroinitializer }, { ptr, i32, [4 x i8] } { ptr @.str.14, i32 6, [4 x i8] zeroinitializer }, { ptr, i32, [4 x i8] } { ptr @.str, i32 0, [4 x i8] zeroinitializer }, { ptr, i32, [4 x i8] } { ptr @.str, i32 0, [4 x i8] zeroinitializer }, { ptr, i32, [4 x i8] } { ptr @.str, i32 0, [4 x i8] zeroinitializer }, { ptr, i32, [4 x i8] } { ptr @.str, i32 0, [4 x i8] zeroinitializer }, { ptr, i32, [4 x i8] } { ptr @.str.15, i32 5, [4 x i8] zeroinitializer }, { ptr, i32, [4 x i8] } { ptr @.str, i32 0, [4 x i8] zeroinitializer }, { ptr, i32, [4 x i8] } { ptr @.str, i32 0, [4 x i8] zeroinitializer }, { ptr, i32, [4 x i8] } { ptr @.str, i32 0, [4 x i8] zeroinitializer }, { ptr, i32, [4 x i8] } { ptr @.str, i32 0, [4 x i8] zeroinitializer }, { ptr, i32, [4 x i8] } { ptr @.str.16, i32 4, [4 x i8] zeroinitializer }], align 16
@.str = private unnamed_addr constant [1 x i8] zeroinitializer, align 1
@.str.1 = private unnamed_addr constant [5 x i8] c"Word\00", align 1
@.str.2 = private unnamed_addr constant [6 x i8] c"Alpha\00", align 1
@.str.3 = private unnamed_addr constant [9 x i8] c"Hiragana\00", align 1
@.str.4 = private unnamed_addr constant [6 x i8] c"Alnum\00", align 1
@.str.5 = private unnamed_addr constant [9 x i8] c"Katakana\00", align 1
@.str.6 = private unnamed_addr constant [6 x i8] c"ASCII\00", align 1
@.str.7 = private unnamed_addr constant [7 x i8] c"XDigit\00", align 1
@.str.8 = private unnamed_addr constant [6 x i8] c"Cntrl\00", align 1
@.str.9 = private unnamed_addr constant [6 x i8] c"Blank\00", align 1
@.str.10 = private unnamed_addr constant [6 x i8] c"Punct\00", align 1
@.str.11 = private unnamed_addr constant [6 x i8] c"Print\00", align 1
@.str.12 = private unnamed_addr constant [6 x i8] c"Upper\00", align 1
@.str.13 = private unnamed_addr constant [6 x i8] c"Space\00", align 1
@.str.14 = private unnamed_addr constant [6 x i8] c"Lower\00", align 1
@.str.15 = private unnamed_addr constant [6 x i8] c"Graph\00", align 1
@.str.16 = private unnamed_addr constant [6 x i8] c"Digit\00", align 1
@hash.asso_values = internal global [256 x i8] c"88888888888888888888888888888888888888888888888888888888888888888\00\03\0A\1988\1E\0088\00\14888\0F88\148\1E8\00\0088888888\0F88888\198\0A8888\058\008\008\0588\148888888888888888888888888888888888888888888888888888888888888888888888888888888888888888888888888888888888888888888888888888888888888888", align 16

; Function Attrs: nounwind uwtable
define dso_local ptr @onigenc_euc_jp_lookup_property_name(ptr noundef %0, i64 noundef %1) #0 {
  %3 = alloca ptr, align 8
  %4 = alloca ptr, align 8
  %5 = alloca i64, align 8
  %6 = alloca i32, align 4
  %7 = alloca ptr, align 8
  %8 = alloca i32, align 4
  store ptr %0, ptr %4, align 8, !tbaa !4
  store i64 %1, ptr %5, align 8, !tbaa !9
  %9 = load i64, ptr %5, align 8, !tbaa !9
  %10 = icmp ule i64 %9, 8
  br i1 %10, label %11, label %52

11:                                               ; preds = %2
  %12 = load i64, ptr %5, align 8, !tbaa !9
  %13 = icmp uge i64 %12, 4
  br i1 %13, label %14, label %52

14:                                               ; preds = %11
  call void @llvm.lifetime.start.p0(i64 4, ptr %6) #4
  %15 = load ptr, ptr %4, align 8, !tbaa !4
  %16 = load i64, ptr %5, align 8, !tbaa !9
  %17 = call i32 @hash(ptr noundef %15, i64 noundef %16)
  store i32 %17, ptr %6, align 4, !tbaa !11
  %18 = load i32, ptr %6, align 4, !tbaa !11
  %19 = icmp ule i32 %18, 55
  br i1 %19, label %20, label %48

20:                                               ; preds = %14
  call void @llvm.lifetime.start.p0(i64 8, ptr %7) #4
  %21 = load i32, ptr %6, align 4, !tbaa !11
  %22 = zext i32 %21 to i64
  %23 = getelementptr inbounds nuw [56 x %struct.PropertyNameCtype], ptr @onigenc_euc_jp_lookup_property_name.wordlist, i64 0, i64 %22
  %24 = getelementptr inbounds nuw %struct.PropertyNameCtype, ptr %23, i32 0, i32 0
  %25 = load ptr, ptr %24, align 16, !tbaa !13
  store ptr %25, ptr %7, align 8, !tbaa !4
  %26 = load ptr, ptr %4, align 8, !tbaa !4
  %27 = load i8, ptr %26, align 1, !tbaa !15
  %28 = sext i8 %27 to i32
  %29 = load ptr, ptr %7, align 8, !tbaa !4
  %30 = load i8, ptr %29, align 1, !tbaa !15
  %31 = sext i8 %30 to i32
  %32 = icmp eq i32 %28, %31
  br i1 %32, label %33, label %44

33:                                               ; preds = %20
  %34 = load ptr, ptr %4, align 8, !tbaa !4
  %35 = getelementptr inbounds i8, ptr %34, i64 1
  %36 = load ptr, ptr %7, align 8, !tbaa !4
  %37 = getelementptr inbounds i8, ptr %36, i64 1
  %38 = call i32 @strcmp(ptr noundef %35, ptr noundef %37) #5
  %39 = icmp ne i32 %38, 0
  br i1 %39, label %44, label %40

40:                                               ; preds = %33
  %41 = load i32, ptr %6, align 4, !tbaa !11
  %42 = zext i32 %41 to i64
  %43 = getelementptr inbounds nuw [56 x %struct.PropertyNameCtype], ptr @onigenc_euc_jp_lookup_property_name.wordlist, i64 0, i64 %42
  store ptr %43, ptr %3, align 8
  store i32 1, ptr %8, align 4
  br label %45

44:                                               ; preds = %33, %20
  store i32 0, ptr %8, align 4
  br label %45

45:                                               ; preds = %44, %40
  call void @llvm.lifetime.end.p0(i64 8, ptr %7) #4
  %46 = load i32, ptr %8, align 4
  switch i32 %46, label %49 [
    i32 0, label %47
  ]

47:                                               ; preds = %45
  br label %48

48:                                               ; preds = %47, %14
  store i32 0, ptr %8, align 4
  br label %49

49:                                               ; preds = %48, %45
  call void @llvm.lifetime.end.p0(i64 4, ptr %6) #4
  %50 = load i32, ptr %8, align 4
  switch i32 %50, label %55 [
    i32 0, label %51
    i32 1, label %53
  ]

51:                                               ; preds = %49
  br label %52

52:                                               ; preds = %51, %11, %2
  store ptr null, ptr %3, align 8
  br label %53

53:                                               ; preds = %52, %49
  %54 = load ptr, ptr %3, align 8
  ret ptr %54

55:                                               ; preds = %49
  unreachable
}

; Function Attrs: nocallback nofree nosync nounwind willreturn memory(argmem: readwrite)
declare void @llvm.lifetime.start.p0(i64 immarg, ptr captures(none)) #1

; Function Attrs: inlinehint nounwind uwtable
define internal i32 @hash(ptr noundef %0, i64 noundef %1) #2 {
  %3 = alloca ptr, align 8
  %4 = alloca i64, align 8
  store ptr %0, ptr %3, align 8, !tbaa !4
  store i64 %1, ptr %4, align 8, !tbaa !9
  %5 = load i64, ptr %4, align 8, !tbaa !9
  %6 = trunc i64 %5 to i32
  %7 = load ptr, ptr %3, align 8, !tbaa !4
  %8 = getelementptr inbounds i8, ptr %7, i64 2
  %9 = load i8, ptr %8, align 1, !tbaa !15
  %10 = zext i8 %9 to i64
  %11 = getelementptr inbounds nuw [256 x i8], ptr @hash.asso_values, i64 0, i64 %10
  %12 = load i8, ptr %11, align 1, !tbaa !15
  %13 = zext i8 %12 to i32
  %14 = add i32 %6, %13
  %15 = load ptr, ptr %3, align 8, !tbaa !4
  %16 = getelementptr inbounds i8, ptr %15, i64 0
  %17 = load i8, ptr %16, align 1, !tbaa !15
  %18 = zext i8 %17 to i64
  %19 = getelementptr inbounds nuw [256 x i8], ptr @hash.asso_values, i64 0, i64 %18
  %20 = load i8, ptr %19, align 1, !tbaa !15
  %21 = zext i8 %20 to i32
  %22 = add i32 %14, %21
  ret i32 %22
}

; Function Attrs: nounwind willreturn memory(read)
declare i32 @strcmp(ptr noundef, ptr noundef) #3

; Function Attrs: nocallback nofree nosync nounwind willreturn memory(argmem: readwrite)
declare void @llvm.lifetime.end.p0(i64 immarg, ptr captures(none)) #1


!llvm.module.flags = !{!0, !1, !2, !3}

!0 = !{i32 1, !"wchar_size", i32 4}
!1 = !{i32 8, !"PIC Level", i32 2}
!2 = !{i32 7, !"PIE Level", i32 2}
!3 = !{i32 7, !"uwtable", i32 2}
!4 = !{!5, !5, i64 0}
!5 = !{!"p1 omnipotent char", !6, i64 0}
!6 = !{!"any pointer", !7, i64 0}
!7 = !{!"omnipotent char", !8, i64 0}
!8 = !{!"Simple C/C++ TBAA"}
!9 = !{!10, !10, i64 0}
!10 = !{!"long", !7, i64 0}
!11 = !{!12, !12, i64 0}
!12 = !{!"int", !7, i64 0}
!13 = !{!14, !5, i64 0}
!14 = !{!"PropertyNameCtype", !5, i64 0, !12, i64 8}
!15 = !{!7, !7, i64 0}
